; ModuleID = 'source-C-CXX/15/399.c'
source_filename = "source-C-CXX/15/399.c"
target datalayout = "e-m:e-p270:32:32-p271:32:32-p272:64:64-i64:64-f80:128-n8:16:32:64-S128"
target triple = "x86_64-pc-linux-gnu"

@.str = private unnamed_addr constant [3 x i8] c"%d\00", align 1
@.str.1 = private unnamed_addr constant [12 x i8] c"%d%d%d%d%d\0A\00", align 1
@.str.2 = private unnamed_addr constant [10 x i8] c"%d%d%d%d\0A\00", align 1
@.str.3 = private unnamed_addr constant [8 x i8] c"%d%d%d\0A\00", align 1
@.str.4 = private unnamed_addr constant [6 x i8] c"%d%d\0A\00", align 1
@.str.5 = private unnamed_addr constant [4 x i8] c"%d\0A\00", align 1

; Function Attrs: nofree nounwind sspstrong uwtable
define dso_local void @main() local_unnamed_addr #0 {
  %1 = alloca i32, align 4
  %2 = bitcast i32* %1 to i8*
  call void @llvm.lifetime.start.p0i8(i64 4, i8* nonnull %2) #3
  %3 = call i32 (i8*, ...) @__isoc99_scanf(i8* getelementptr inbounds ([3 x i8], [3 x i8]* @.str, i64 0, i64 0), i32* nonnull %1)
  %4 = load i32, i32* %1, align 4, !tbaa !5
  %5 = icmp sgt i32 %4, 9999
  br i1 %5, label %6, label %22

6:                                                ; preds = %0
  %7 = udiv i32 %4, 10000
  %8 = urem i32 %4, 10000
  %9 = trunc i32 %8 to i16
  %10 = udiv i16 %9, 1000
  %11 = zext i16 %10 to i32
  %12 = urem i16 %9, 1000
  %13 = udiv i16 %12, 100
  %14 = zext i16 %13 to i32
  %15 = urem i16 %12, 100
  %16 = trunc i16 %15 to i8
  %17 = udiv i8 %16, 10
  %18 = zext i8 %17 to i32
  %19 = urem i8 %16, 10
  %20 = zext i8 %19 to i32
  %21 = call i32 (i8*, ...) @printf(i8* nonnull dereferenceable(1) getelementptr inbounds ([12 x i8], [12 x i8]* @.str.1, i64 0, i64 0), i32 %20, i32 %18, i32 %14, i32 %11, i32 %7)
  br label %62

22:                                               ; preds = %0
  %23 = icmp sgt i32 %4, 999
  br i1 %23, label %24, label %38

24:                                               ; preds = %22
  %25 = trunc i32 %4 to i16
  %26 = udiv i16 %25, 1000
  %27 = zext i16 %26 to i32
  %28 = urem i16 %25, 1000
  %29 = udiv i16 %28, 100
  %30 = zext i16 %29 to i32
  %31 = urem i16 %28, 100
  %32 = trunc i16 %31 to i8
  %33 = udiv i8 %32, 10
  %34 = zext i8 %33 to i32
  %35 = urem i8 %32, 10
  %36 = zext i8 %35 to i32
  %37 = call i32 (i8*, ...) @printf(i8* nonnull dereferenceable(1) getelementptr inbounds ([10 x i8], [10 x i8]* @.str.2, i64 0, i64 0), i32 %36, i32 %34, i32 %30, i32 %27)
  br label %62

38:                                               ; preds = %22
  %39 = icmp sgt i32 %4, 99
  br i1 %39, label %40, label %51

40:                                               ; preds = %38
  %41 = trunc i32 %4 to i16
  %42 = udiv i16 %41, 100
  %43 = zext i16 %42 to i32
  %44 = urem i16 %41, 100
  %45 = trunc i16 %44 to i8
  %46 = udiv i8 %45, 10
  %47 = zext i8 %46 to i32
  %48 = urem i8 %45, 10
  %49 = zext i8 %48 to i32
  %50 = call i32 (i8*, ...) @printf(i8* nonnull dereferenceable(1) getelementptr inbounds ([8 x i8], [8 x i8]* @.str.3, i64 0, i64 0), i32 %49, i32 %47, i32 %43)
  br label %62

51:                                               ; preds = %38
  %52 = icmp sgt i32 %4, 9
  br i1 %52, label %53, label %60

53:                                               ; preds = %51
  %54 = trunc i32 %4 to i8
  %55 = udiv i8 %54, 10
  %56 = zext i8 %55 to i32
  %57 = urem i8 %54, 10
  %58 = zext i8 %57 to i32
  %59 = call i32 (i8*, ...) @printf(i8* nonnull dereferenceable(1) getelementptr inbounds ([6 x i8], [6 x i8]* @.str.4, i64 0, i64 0), i32 %58, i32 %56)
  br label %62

60:                                               ; preds = %51
  %61 = call i32 (i8*, ...) @printf(i8* nonnull dereferenceable(1) getelementptr inbounds ([4 x i8], [4 x i8]* @.str.5, i64 0, i64 0), i32 %4)
  br label %62

62:                                               ; preds = %24, %53, %60, %40, %6
  call void @llvm.lifetime.end.p0i8(i64 4, i8* nonnull %2) #3
  ret void
}

; Function Attrs: argmemonly mustprogress nofree nosync nounwind willreturn
declare void @llvm.lifetime.start.p0i8(i64 immarg, i8* nocapture) #1

; Function Attrs: nofree nounwind
declare noundef i32 @__isoc99_scanf(i8* nocapture noundef readonly, ...) local_unnamed_addr #2

; Function Attrs: nofree nounwind
declare noundef i32 @printf(i8* nocapture noundef readonly, ...) local_unnamed_addr #2

; Function Attrs: argmemonly mustprogress nofree nosync nounwind willreturn
declare void @llvm.lifetime.end.p0i8(i64 immarg, i8* nocapture) #1


!llvm.module.flags = !{!0, !1, !2, !3}
!llvm.ident = !{!4}

!0 = !{i32 1, !"wchar_size", i32 4}
!1 = !{i32 7, !"PIC Level", i32 2}
!2 = !{i32 7, !"PIE Level", i32 2}
!3 = !{i32 7, !"uwtable", i32 1}
!4 = !{!"clang version 13.0.0"}
!5 = !{!6, !6, i64 0}
!6 = !{!"int", !7, i64 0}
!7 = !{!"omnipotent char", !8, i64 0}
!8 = !{!"Simple C/C++ TBAA"}
